target datalayout = "e-m:e-p270:32:32-p271:32:32-p272:64:64-i64:64-i128:128-f80:128-n8:16:32:64-S128"
target triple = "x86_64-unknown-linux-gnu"

%struct.tracepoint = type { ptr, %struct.static_key, ptr, ptr, ptr, ptr, ptr, ptr, ptr }
%struct.static_key = type { %struct.atomic_t, %union.anon.5 }
%struct.atomic_t = type { i32 }
%union.anon.5 = type { i64 }
%struct.pcpu_hot = type { %union.anon.6 }
%union.anon.6 = type { %struct.anon.7, [16 x i8] }
%struct.anon.7 = type { ptr, i32, i32, i64, i64, ptr, i16, i8 }
%struct.cpumask = type { [1 x i64] }

@pcpu_hot = external dso_local global %struct.pcpu_hot, section ".data..percpu..shared_aligned", align 64
@__cpu_online_mask = external dso_local global %struct.cpumask, align 8
@__tracepoint_jbd2_shrink_checkpoint_list = external dso_local global %struct.tracepoint, align 8

; Function Attrs: fn_ret_thunk_extern nounwind null_pointer_is_valid
define internal fastcc i64 @journal_shrink_one_cp_list(ptr noundef %0, i32 noundef %1, ptr nocapture noundef writeonly %2) unnamed_addr #0 align 16 {
  store i8 0, ptr %2, align 1
  %4 = icmp eq ptr %0, null
  br i1 %4, label %50, label %5

5:                                                ; preds = %3
  %6 = getelementptr inbounds i8, ptr %0, i64 88
  %7 = load ptr, ptr %6, align 8
  %8 = icmp eq i32 %1, 0
  %9 = icmp eq i32 %1, 2
  br label %10

10:                                               ; preds = %47, %5
  %11 = phi ptr [ %0, %5 ], [ %14, %47 ]
  %12 = phi i64 [ 0, %5 ], [ %48, %47 ]
  %13 = getelementptr inbounds i8, ptr %11, i64 80
  %14 = load ptr, ptr %13, align 8
  br i1 %8, label %15, label %17

15:                                               ; preds = %10
  %16 = tail call i32 @__jbd2_journal_remove_checkpoint(ptr noundef %11), !range !26
  br label %36

17:                                               ; preds = %10
  %18 = load ptr, ptr %11, align 8
  %19 = getelementptr inbounds i8, ptr %11, i64 40
  %20 = load ptr, ptr %19, align 8
  %21 = icmp eq ptr %20, null
  br i1 %21, label %22, label %32

22:                                               ; preds = %17
  %23 = tail call i8 asm sideeffect ".pushsection .smp_locks,\22a\22\0A.balign 4\0A.long 671f - .\0A.popsection\0A671:\0A\09lock;  btsq  $2, $0\0A\09/* output condition code c*/\0A", "=*m,={@ccc},Ir,*m,~{memory},~{dirflag},~{fpsr},~{flags}"(ptr elementtype(i64) %18, i64 2, ptr elementtype(i64) %18) #9, !srcloc !24
  %24 = icmp ult i8 %23, 2
  tail call void @llvm.assume(i1 %24)
  %25 = icmp eq i8 %23, 0
  br i1 %25, label %26, label %32

26:                                               ; preds = %22
  %27 = load volatile i64, ptr %18, align 8
  %28 = and i64 %27, 2
  %29 = icmp eq i64 %28, 0
  tail call void @unlock_buffer(ptr noundef %18) #9
  br i1 %29, label %30, label %32

30:                                               ; preds = %26
  %31 = tail call i32 @__jbd2_journal_remove_checkpoint(ptr noundef %11), !range !26
  br label %32

32:                                               ; preds = %30, %26, %22, %17
  %33 = phi i32 [ %31, %30 ], [ -16, %17 ], [ -16, %22 ], [ -16, %26 ]
  %34 = icmp slt i32 %33, 0
  br i1 %34, label %35, label %36

35:                                               ; preds = %32
  br i1 %9, label %47, label %50

36:                                               ; preds = %32, %15
  %37 = phi i32 [ %16, %15 ], [ %33, %32 ]
  %38 = add i64 %12, 1
  %39 = icmp eq i32 %37, 0
  br i1 %39, label %41, label %40

40:                                               ; preds = %36
  store i8 1, ptr %2, align 1
  br label %50

41:                                               ; preds = %36
  %42 = tail call i64 asm "movq %gs:${1:P}, $0", "=r,p,~{dirflag},~{fpsr},~{flags}"(ptr nonnull @pcpu_hot) #11, !srcloc !29
  %43 = inttoptr i64 %42 to ptr
  %44 = load volatile i64, ptr %43, align 8
  %45 = and i64 %44, 8
  %46 = icmp eq i64 %45, 0
  br i1 %46, label %47, label %50

47:                                               ; preds = %41, %35
  %48 = phi i64 [ %38, %41 ], [ %12, %35 ]
  %49 = icmp eq ptr %11, %7
  br i1 %49, label %50, label %10, !llvm.loop !43

50:                                               ; preds = %47, %41, %40, %35, %3
  %51 = phi i64 [ 0, %3 ], [ %38, %40 ], [ %38, %41 ], [ %48, %47 ], [ %12, %35 ]
  ret i64 %51
}

; Function Attrs: fn_ret_thunk_extern nounwind null_pointer_is_valid
define dso_local i64 @jbd2_journal_shrink_checkpoint_list(ptr noundef %0, ptr nocapture noundef %1) local_unnamed_addr #0 align 16 {
  %3 = alloca i8, align 1
  call void @llvm.lifetime.start.p0(i64 1, ptr nonnull %3) #9
  store i8 0, ptr %3, align 1, !annotation !21
  %4 = getelementptr inbounds i8, ptr %0, i64 1044
  tail call void @_raw_spin_lock(ptr noundef %4) #9
  %5 = getelementptr inbounds i8, ptr %0, i64 128
  %6 = load ptr, ptr %5, align 8
  %7 = icmp eq ptr %6, null
  br i1 %7, label %13, label %8

8:                                                ; preds = %2
  %9 = getelementptr inbounds i8, ptr %0, i64 872
  br label %19

10:                                               ; preds = %67
  tail call void @_raw_spin_lock(ptr noundef %4) #9
  %11 = load ptr, ptr %5, align 8
  %12 = icmp eq ptr %11, null
  br i1 %12, label %13, label %19

13:                                               ; preds = %10, %2
  %14 = phi i32 [ 0, %2 ], [ %35, %10 ]
  %15 = phi i32 [ 0, %2 ], [ %68, %10 ]
  %16 = phi i32 [ 0, %2 ], [ %42, %10 ]
  %17 = phi i64 [ 0, %2 ], [ %46, %10 ]
  %18 = phi i32 [ 0, %2 ], [ %31, %10 ]
  tail call void @_raw_spin_unlock(ptr noundef %4) #9
  br label %74

19:                                               ; preds = %10, %8
  %20 = phi ptr [ %6, %8 ], [ %11, %10 ]
  %21 = phi i32 [ 0, %8 ], [ %31, %10 ]
  %22 = phi i64 [ 0, %8 ], [ %46, %10 ]
  %23 = load ptr, ptr %9, align 8
  %24 = icmp eq ptr %23, null
  %25 = select i1 %24, ptr %20, ptr %23
  %26 = icmp eq i32 %21, 0
  br i1 %26, label %27, label %30

27:                                               ; preds = %19
  %28 = getelementptr inbounds i8, ptr %25, i64 8
  %29 = load i32, ptr %28, align 8
  br label %30

30:                                               ; preds = %27, %19
  %31 = phi i32 [ %21, %19 ], [ %29, %27 ]
  %32 = getelementptr inbounds i8, ptr %20, i64 160
  %33 = load ptr, ptr %32, align 8
  %34 = getelementptr inbounds i8, ptr %33, i64 8
  %35 = load i32, ptr %34, align 8
  br label %36

36:                                               ; preds = %56, %30
  %37 = phi i64 [ %22, %30 ], [ %46, %56 ]
  %38 = phi ptr [ %25, %30 ], [ %40, %56 ]
  %39 = getelementptr inbounds i8, ptr %38, i64 152
  %40 = load ptr, ptr %39, align 8
  %41 = getelementptr inbounds i8, ptr %38, i64 8
  %42 = load i32, ptr %41, align 8
  %43 = getelementptr inbounds i8, ptr %38, i64 56
  %44 = load ptr, ptr %43, align 8
  %45 = call fastcc i64 @journal_shrink_one_cp_list(ptr noundef %44, i32 noundef 2, ptr noundef nonnull %3)
  %46 = add i64 %45, %37
  %47 = load i64, ptr %1, align 8
  %48 = tail call i64 @llvm.usub.sat.i64(i64 %47, i64 %45)
  store i64 %48, ptr %1, align 8
  %49 = icmp ugt i64 %47, %45
  br i1 %49, label %50, label %61

50:                                               ; preds = %36
  %51 = tail call i64 asm "movq %gs:${1:P}, $0", "=r,p,~{dirflag},~{fpsr},~{flags}"(ptr nonnull @pcpu_hot) #11, !srcloc !29
  %52 = inttoptr i64 %51 to ptr
  %53 = load volatile i64, ptr %52, align 8
  %54 = and i64 %53, 8
  %55 = icmp eq i64 %54, 0
  br i1 %55, label %56, label %61

56:                                               ; preds = %50
  %57 = load volatile i32, ptr %4, align 4
  %58 = icmp ugt i32 %57, 255
  %59 = icmp eq ptr %38, %33
  %60 = or i1 %59, %58
  br i1 %60, label %61, label %36, !llvm.loop !38

61:                                               ; preds = %56, %50, %36
  %62 = icmp eq ptr %38, %33
  br i1 %62, label %66, label %63

63:                                               ; preds = %61
  store ptr %40, ptr %9, align 8
  %64 = getelementptr inbounds i8, ptr %40, i64 8
  %65 = load i32, ptr %64, align 8
  br label %67

66:                                               ; preds = %61
  store ptr null, ptr %9, align 8
  br label %67

67:                                               ; preds = %66, %63
  %68 = phi i32 [ %65, %63 ], [ 0, %66 ]
  tail call void @_raw_spin_unlock(ptr noundef %4) #9
  %69 = tail call i32 @__SCT__cond_resched() #9
  %70 = load i64, ptr %1, align 8
  %71 = icmp ne i64 %70, 0
  %72 = icmp ne i32 %68, 0
  %73 = select i1 %71, i1 %72, i1 false
  br i1 %73, label %10, label %74

74:                                               ; preds = %67, %13
  %75 = phi i32 [ %14, %13 ], [ %35, %67 ]
  %76 = phi i32 [ %15, %13 ], [ %68, %67 ]
  %77 = phi i32 [ %16, %13 ], [ %42, %67 ]
  %78 = phi i64 [ %17, %13 ], [ %46, %67 ]
  %79 = phi i32 [ %18, %13 ], [ %31, %67 ]
  callbr void asm sideeffect "1:jmp ${2:l} # objtool NOPs this \0A\09.pushsection __jump_table,  \22aw\22 \0A\09 .balign 8 \0A\09.long 1b - . \0A\09.long ${2:l} - . \0A\09 .quad ${0:c} + ${1:c} - .\0A\09.popsection \0A\09", "i,i,!i,~{dirflag},~{fpsr},~{flags}"(ptr nonnull getelementptr inbounds (%struct.tracepoint, ptr @__tracepoint_jbd2_shrink_checkpoint_list, i64 0, i32 1), i32 2) #9
          to label %100 [label %80], !srcloc !12

80:                                               ; preds = %74
  %81 = tail call i32 asm sideeffect "movl %gs:$1, $0", "=r,*m,~{dirflag},~{fpsr},~{flags}"(ptr nonnull elementtype(i32) getelementptr inbounds (%struct.pcpu_hot, ptr @pcpu_hot, i64 0, i32 0, i32 0, i32 2)) #9, !srcloc !39
  %82 = zext i32 %81 to i64
  %83 = tail call i8 asm sideeffect " btq  $2,$1\0A\09/* output condition code c*/\0A", "={@ccc},*m,Ir,~{memory},~{dirflag},~{fpsr},~{flags}"(ptr nonnull elementtype(i64) @__cpu_online_mask, i64 %82) #9, !srcloc !14
  %84 = icmp ult i8 %83, 2
  tail call void @llvm.assume(i1 %84)
  %85 = icmp eq i8 %83, 0
  br i1 %85, label %100, label %86

86:                                               ; preds = %80
  tail call void asm "incl %gs:$0", "=*m,*m,~{dirflag},~{fpsr},~{flags}"(ptr nonnull elementtype(i32) getelementptr inbounds (%struct.pcpu_hot, ptr @pcpu_hot, i64 0, i32 0, i32 0, i32 1), ptr nonnull elementtype(i32) getelementptr inbounds (%struct.pcpu_hot, ptr @pcpu_hot, i64 0, i32 0, i32 0, i32 1)) #9, !srcloc !15
  tail call void asm sideeffect "", "~{memory},~{dirflag},~{fpsr},~{flags}"() #9, !srcloc !40
  %87 = load volatile ptr, ptr getelementptr inbounds (%struct.tracepoint, ptr @__tracepoint_jbd2_shrink_checkpoint_list, i64 0, i32 8), align 8
  %88 = icmp eq ptr %87, null
  br i1 %88, label %93, label %89

89:                                               ; preds = %86
  %90 = getelementptr inbounds i8, ptr %87, i64 8
  %91 = load ptr, ptr %90, align 8
  %92 = tail call i32 @__SCT__tp_func_jbd2_shrink_checkpoint_list(ptr noundef %91, ptr noundef %0, i32 noundef %79, i32 noundef %77, i32 noundef %75, i64 noundef %78, i32 noundef %76) #9
  br label %93

93:                                               ; preds = %89, %86
  tail call void asm sideeffect "", "~{memory},~{dirflag},~{fpsr},~{flags}"() #9, !srcloc !41
  %94 = tail call i8 asm sideeffect "decl %gs:$0\0A\09/* output condition code e*/\0A", "=*m,={@cce},*m,~{memory},~{dirflag},~{fpsr},~{flags}"(ptr nonnull elementtype(i32) getelementptr inbounds (%struct.pcpu_hot, ptr @pcpu_hot, i64 0, i32 0, i32 0, i32 1), ptr nonnull elementtype(i32) getelementptr inbounds (%struct.pcpu_hot, ptr @pcpu_hot, i64 0, i32 0, i32 0, i32 1)) #9, !srcloc !18
  %95 = icmp ult i8 %94, 2
  tail call void @llvm.assume(i1 %95)
  %96 = icmp eq i8 %94, 0
  br i1 %96, label %100, label %97, !prof !19

97:                                               ; preds = %93
  %98 = tail call i64 @llvm.read_register.i64(metadata !0)
  %99 = tail call i64 asm sideeffect "call __SCT__preempt_schedule_notrace", "={rsp},{rsp},~{dirflag},~{fpsr},~{flags}"(i64 %98) #9, !srcloc !42
  tail call void @llvm.write_register.i64(metadata !0, i64 %99)
  br label %100

100:                                              ; preds = %97, %93, %80, %74
  call void @llvm.lifetime.end.p0(i64 1, ptr nonnull %3) #9
  ret i64 %78
}