; Function Attrs: fn_ret_thunk_extern nounwind null_pointer_is_valid
define dso_local i64 @jbd2_journal_shrink_checkpoint_list(ptr noundef %0, ptr nocapture noundef %1) local_unnamed_addr #0 align 16 {
  %3 = getelementptr inbounds i8, ptr %0, i64 1044
  tail call void @_raw_spin_lock(ptr noundef %3) #9
  %4 = getelementptr inbounds i8, ptr %0, i64 128
  %5 = load ptr, ptr %4, align 8
  %6 = icmp eq ptr %5, null
  br i1 %6, label %.loopexit5, label %7

7:                                                ; preds = %2
  %8 = getelementptr inbounds i8, ptr %0, i64 872
  br label %17

9:                                                ; preds = %98
  tail call void @_raw_spin_lock(ptr noundef %3) #9
  %10 = load ptr, ptr %4, align 8
  %11 = icmp eq ptr %10, null
  br i1 %11, label %.loopexit5, label %17

.loopexit5:                                       ; preds = %9, %2
  %12 = phi i32 [ 0, %2 ], [ %33, %9 ]
  %13 = phi i32 [ 0, %2 ], [ %99, %9 ]
  %14 = phi i32 [ 0, %2 ], [ %40, %9 ]
  %15 = phi i64 [ 0, %2 ], [ %77, %9 ]
  %16 = phi i32 [ 0, %2 ], [ %29, %9 ]
  tail call void @_raw_spin_unlock(ptr noundef %3) #9
  br label %.loopexit

17:                                               ; preds = %9, %7
  %18 = phi ptr [ %5, %7 ], [ %10, %9 ]
  %19 = phi i32 [ 0, %7 ], [ %29, %9 ]
  %20 = phi i64 [ 0, %7 ], [ %77, %9 ]
  %21 = load ptr, ptr %8, align 8
  %22 = icmp eq ptr %21, null
  %23 = select i1 %22, ptr %18, ptr %21
  %24 = icmp eq i32 %19, 0
  br i1 %24, label %25, label %28

25:                                               ; preds = %17
  %26 = getelementptr inbounds i8, ptr %23, i64 8
  %27 = load i32, ptr %26, align 8
  br label %28

28:                                               ; preds = %25, %17
  %29 = phi i32 [ %19, %17 ], [ %27, %25 ]
  %30 = getelementptr inbounds i8, ptr %18, i64 160
  %31 = load ptr, ptr %30, align 8
  %32 = getelementptr inbounds i8, ptr %31, i64 8
  %33 = load i32, ptr %32, align 8
  br label %34

34:                                               ; preds = %87, %28
  %35 = phi i64 [ %20, %28 ], [ %77, %87 ]
  %36 = phi ptr [ %23, %28 ], [ %38, %87 ]
  %37 = getelementptr inbounds i8, ptr %36, i64 152
  %38 = load ptr, ptr %37, align 8
  %39 = getelementptr inbounds i8, ptr %36, i64 8
  %40 = load i32, ptr %39, align 8
  %41 = getelementptr inbounds i8, ptr %36, i64 56
  %42 = load ptr, ptr %41, align 8
  %43 = icmp eq ptr %42, null
  br i1 %43, label %journal_shrink_one_cp_list.exit, label %44

44:                                               ; preds = %34
  %45 = getelementptr inbounds i8, ptr %42, i64 88
  %46 = load ptr, ptr %45, align 8
  br label %.split.split.us.i

.split.split.us.i:                                ; preds = %73, %44
  %47 = phi ptr [ %50, %73 ], [ %42, %44 ]
  %48 = phi i64 [ %74, %73 ], [ 0, %44 ]
  %49 = getelementptr inbounds i8, ptr %47, i64 80
  %50 = load ptr, ptr %49, align 8
  %51 = load ptr, ptr %47, align 8
  %52 = getelementptr inbounds i8, ptr %47, i64 40
  %53 = load ptr, ptr %52, align 8
  %54 = icmp eq ptr %53, null
  br i1 %54, label %55, label %73

55:                                               ; preds = %.split.split.us.i
  %56 = tail call i8 asm sideeffect ".pushsection .smp_locks,\22a\22\0A.balign 4\0A.long 671f - .\0A.popsection\0A671:\0A\09lock;  btsq  $2, $0\0A\09/* output condition code c*/\0A", "=*m,={@ccc},Ir,*m,~{memory},~{dirflag},~{fpsr},~{flags}"(ptr elementtype(i64) %51, i64 2, ptr elementtype(i64) %51) #9, !srcloc !28
  %57 = icmp ult i8 %56, 2
  tail call void @llvm.assume(i1 %57)
  %58 = icmp eq i8 %56, 0
  br i1 %58, label %59, label %73

59:                                               ; preds = %55
  %60 = load volatile i64, ptr %51, align 8
  %61 = and i64 %60, 2
  %62 = icmp eq i64 %61, 0
  tail call void @unlock_buffer(ptr noundef %51) #9
  br i1 %62, label %63, label %73

63:                                               ; preds = %59
  %64 = tail call i32 @__jbd2_journal_remove_checkpoint(ptr noundef %47), !range !30
  %65 = add i64 %48, 1
  %66 = icmp eq i32 %64, 0
  br i1 %66, label %67, label %journal_shrink_one_cp_list.exit

67:                                               ; preds = %63
  %68 = tail call i64 asm "movq %gs:${1:P}, $0", "=r,p,~{dirflag},~{fpsr},~{flags}"(ptr nonnull @pcpu_hot) #11, !srcloc !33
  %69 = inttoptr i64 %68 to ptr
  %70 = load volatile i64, ptr %69, align 8
  %71 = and i64 %70, 8
  %72 = icmp eq i64 %71, 0
  br i1 %72, label %73, label %journal_shrink_one_cp_list.exit

73:                                               ; preds = %67, %59, %55, %.split.split.us.i
  %74 = phi i64 [ %65, %67 ], [ %48, %59 ], [ %48, %55 ], [ %48, %.split.split.us.i ]
  %75 = icmp eq ptr %47, %46
  br i1 %75, label %journal_shrink_one_cp_list.exit, label %.split.split.us.i, !llvm.loop !39

journal_shrink_one_cp_list.exit:                  ; preds = %63, %67, %73, %34
  %76 = phi i64 [ 0, %34 ], [ %65, %63 ], [ %65, %67 ], [ %74, %73 ]
  %77 = add i64 %76, %35
  %78 = load i64, ptr %1, align 8
  %79 = tail call i64 @llvm.usub.sat.i64(i64 %78, i64 %76)
  store i64 %79, ptr %1, align 8
  %80 = icmp ugt i64 %78, %76
  br i1 %80, label %81, label %92

81:                                               ; preds = %journal_shrink_one_cp_list.exit
  %82 = tail call i64 asm "movq %gs:${1:P}, $0", "=r,p,~{dirflag},~{fpsr},~{flags}"(ptr nonnull @pcpu_hot) #11, !srcloc !33
  %83 = inttoptr i64 %82 to ptr
  %84 = load volatile i64, ptr %83, align 8
  %85 = and i64 %84, 8
  %86 = icmp eq i64 %85, 0
  br i1 %86, label %87, label %92

87:                                               ; preds = %81
  %88 = load volatile i32, ptr %3, align 4
  %89 = icmp ugt i32 %88, 255
  %90 = icmp eq ptr %36, %31
  %91 = or i1 %90, %89
  br i1 %91, label %92, label %34, !llvm.loop !40

92:                                               ; preds = %87, %81, %journal_shrink_one_cp_list.exit
  %93 = icmp eq ptr %36, %31
  br i1 %93, label %97, label %94

94:                                               ; preds = %92
  store ptr %38, ptr %8, align 8
  %95 = getelementptr inbounds i8, ptr %38, i64 8
  %96 = load i32, ptr %95, align 8
  br label %98

97:                                               ; preds = %92
  store ptr null, ptr %8, align 8
  br label %98

98:                                               ; preds = %97, %94
  %99 = phi i32 [ %96, %94 ], [ 0, %97 ]
  tail call void @_raw_spin_unlock(ptr noundef %3) #9
  %100 = tail call i32 @__SCT__cond_resched() #9
  %101 = load i64, ptr %1, align 8
  %102 = icmp ne i64 %101, 0
  %103 = icmp ne i32 %99, 0
  %104 = select i1 %102, i1 %103, i1 false
  br i1 %104, label %9, label %.loopexit

.loopexit:                                        ; preds = %98, %.loopexit5
  %105 = phi i32 [ %12, %.loopexit5 ], [ %33, %98 ]
  %106 = phi i32 [ %13, %.loopexit5 ], [ %99, %98 ]
  %107 = phi i32 [ %14, %.loopexit5 ], [ %40, %98 ]
  %108 = phi i64 [ %15, %.loopexit5 ], [ %77, %98 ]
  %109 = phi i32 [ %16, %.loopexit5 ], [ %29, %98 ]
  callbr void asm sideeffect "1:jmp ${2:l} # objtool NOPs this \0A\09.pushsection __jump_table,  \22aw\22 \0A\09 .balign 8 \0A\09.long 1b - . \0A\09.long ${2:l} - . \0A\09 .quad ${0:c} + ${1:c} - .\0A\09.popsection \0A\09", "i,i,!i,~{dirflag},~{fpsr},~{flags}"(ptr nonnull getelementptr inbounds (%struct.tracepoint, ptr @__tracepoint_jbd2_shrink_checkpoint_list, i64 0, i32 1), i32 2) #9
          to label %130 [label %110], !srcloc !17

110:                                              ; preds = %.loopexit
  %111 = tail call i32 asm sideeffect "movl %gs:$1, $0", "=r,*m,~{dirflag},~{fpsr},~{flags}"(ptr nonnull elementtype(i32) getelementptr inbounds (%struct.pcpu_hot, ptr @pcpu_hot, i64 0, i32 0, i32 0, i32 2)) #9, !srcloc !41
  %112 = zext i32 %111 to i64
  %113 = tail call i8 asm sideeffect " btq  $2,$1\0A\09/* output condition code c*/\0A", "={@ccc},*m,Ir,~{memory},~{dirflag},~{fpsr},~{flags}"(ptr nonnull elementtype(i64) @__cpu_online_mask, i64 %112) #9, !srcloc !19
  %114 = icmp ult i8 %113, 2
  tail call void @llvm.assume(i1 %114)
  %115 = icmp eq i8 %113, 0
  br i1 %115, label %130, label %116

116:                                              ; preds = %110
  tail call void asm "incl %gs:$0", "=*m,*m,~{dirflag},~{fpsr},~{flags}"(ptr nonnull elementtype(i32) getelementptr inbounds (%struct.pcpu_hot, ptr @pcpu_hot, i64 0, i32 0, i32 0, i32 1), ptr nonnull elementtype(i32) getelementptr inbounds (%struct.pcpu_hot, ptr @pcpu_hot, i64 0, i32 0, i32 0, i32 1)) #9, !srcloc !20
  tail call void asm sideeffect "", "~{memory},~{dirflag},~{fpsr},~{flags}"() #9, !srcloc !42
  %117 = load volatile ptr, ptr getelementptr inbounds (%struct.tracepoint, ptr @__tracepoint_jbd2_shrink_checkpoint_list, i64 0, i32 8), align 8
  %118 = icmp eq ptr %117, null
  br i1 %118, label %123, label %119

119:                                              ; preds = %116
  %120 = getelementptr inbounds i8, ptr %117, i64 8
  %121 = load ptr, ptr %120, align 8
  %122 = tail call i32 @__SCT__tp_func_jbd2_shrink_checkpoint_list(ptr noundef %121, ptr noundef %0, i32 noundef %109, i32 noundef %107, i32 noundef %105, i64 noundef %108, i32 noundef %106) #9
  br label %123

123:                                              ; preds = %119, %116
  tail call void asm sideeffect "", "~{memory},~{dirflag},~{fpsr},~{flags}"() #9, !srcloc !43
  %124 = tail call i8 asm sideeffect "decl %gs:$0\0A\09/* output condition code e*/\0A", "=*m,={@cce},*m,~{memory},~{dirflag},~{fpsr},~{flags}"(ptr nonnull elementtype(i32) getelementptr inbounds (%struct.pcpu_hot, ptr @pcpu_hot, i64 0, i32 0, i32 0, i32 1), ptr nonnull elementtype(i32) getelementptr inbounds (%struct.pcpu_hot, ptr @pcpu_hot, i64 0, i32 0, i32 0, i32 1)) #9, !srcloc !23
  %125 = icmp ult i8 %124, 2
  tail call void @llvm.assume(i1 %125)
  %126 = icmp eq i8 %124, 0
  br i1 %126, label %130, label %127, !prof !24

127:                                              ; preds = %123
  %128 = tail call i64 @llvm.read_register.i64(metadata !0)
  %129 = tail call i64 asm sideeffect "call __SCT__preempt_schedule_notrace", "={rsp},{rsp},~{dirflag},~{fpsr},~{flags}"(i64 %128) #9, !srcloc !44
  tail call void @llvm.write_register.i64(metadata !0, i64 %129)
  br label %130

130:                                              ; preds = %127, %123, %110, %.loopexit
  ret i64 %108
}